; ModuleID = 'source-C-CXX/51/3283.c'
source_filename = "source-C-CXX/51/3283.c"
target datalayout = "e-m:e-p270:32:32-p271:32:32-p272:64:64-i64:64-f80:128-n8:16:32:64-S128"
target triple = "x86_64-pc-linux-gnu"

%struct._IO_FILE = type { i32, i8*, i8*, i8*, i8*, i8*, i8*, i8*, i8*, i8*, i8*, i8*, %struct._IO_marker*, %struct._IO_FILE*, i32, i32, i64, i16, i8, [1 x i8], i8*, i64, %struct._IO_codecvt*, %struct._IO_wide_data*, %struct._IO_FILE*, i8*, i64, i32, [20 x i8] }
%struct._IO_marker = type opaque
%struct._IO_codecvt = type opaque
%struct._IO_wide_data = type opaque

@.str = private unnamed_addr constant [5 x i8] c"%d%d\00", align 1
@n = dso_local global i32 0, align 4
@m = dso_local global i32 0, align 4
@.str.1 = private unnamed_addr constant [3 x i8] c"%d\00", align 1
@a = dso_local global [100 x i32] zeroinitializer, align 16
@stdout = external local_unnamed_addr global %struct._IO_FILE*, align 8

; Function Attrs: nofree nounwind sspstrong uwtable
define dso_local i32 @main() local_unnamed_addr #0 {
  %1 = tail call i32 (i8*, ...) @__isoc99_scanf(i8* getelementptr inbounds ([5 x i8], [5 x i8]* @.str, i64 0, i64 0), i32* nonnull @n, i32* nonnull @m)
  %2 = load i32, i32* @n, align 4, !tbaa !5
  %3 = load i32, i32* @m, align 4, !tbaa !5
  %4 = icmp sgt i32 %2, %3
  br i1 %4, label %9, label %5

5:                                                ; preds = %9, %0
  %6 = phi i32 [ %2, %0 ], [ %17, %9 ]
  %7 = phi i32 [ %3, %0 ], [ %18, %9 ]
  %8 = icmp sgt i32 %7, 0
  br i1 %8, label %27, label %24

9:                                                ; preds = %0, %9
  %10 = phi i64 [ %16, %9 ], [ 0, %0 ]
  %11 = phi i32 [ %18, %9 ], [ %3, %0 ]
  %12 = sext i32 %11 to i64
  %13 = getelementptr inbounds [100 x i32], [100 x i32]* @a, i64 0, i64 %12
  %14 = getelementptr inbounds i32, i32* %13, i64 %10
  %15 = tail call i32 (i8*, ...) @__isoc99_scanf(i8* getelementptr inbounds ([3 x i8], [3 x i8]* @.str.1, i64 0, i64 0), i32* nonnull %14)
  %16 = add nuw nsw i64 %10, 1
  %17 = load i32, i32* @n, align 4, !tbaa !5
  %18 = load i32, i32* @m, align 4, !tbaa !5
  %19 = sub nsw i32 %17, %18
  %20 = sext i32 %19 to i64
  %21 = icmp slt i64 %16, %20
  br i1 %21, label %9, label %5, !llvm.loop !9

22:                                               ; preds = %27
  %23 = load i32, i32* @n, align 4, !tbaa !5
  br label %24

24:                                               ; preds = %22, %5
  %25 = phi i32 [ %23, %22 ], [ %6, %5 ]
  %26 = icmp sgt i32 %25, 0
  br i1 %26, label %35, label %53

27:                                               ; preds = %5, %27
  %28 = phi i64 [ %31, %27 ], [ 0, %5 ]
  %29 = getelementptr inbounds [100 x i32], [100 x i32]* @a, i64 0, i64 %28
  %30 = tail call i32 (i8*, ...) @__isoc99_scanf(i8* getelementptr inbounds ([3 x i8], [3 x i8]* @.str.1, i64 0, i64 0), i32* nonnull %29)
  %31 = add nuw nsw i64 %28, 1
  %32 = load i32, i32* @m, align 4, !tbaa !5
  %33 = sext i32 %32 to i64
  %34 = icmp slt i64 %31, %33
  br i1 %34, label %27, label %22, !llvm.loop !11

35:                                               ; preds = %24, %48
  %36 = phi i64 [ %50, %48 ], [ 0, %24 ]
  %37 = getelementptr inbounds [100 x i32], [100 x i32]* @a, i64 0, i64 %36
  %38 = load i32, i32* %37, align 4, !tbaa !5
  %39 = tail call i32 (i8*, ...) @printf(i8* nonnull dereferenceable(1) getelementptr inbounds ([3 x i8], [3 x i8]* @.str.1, i64 0, i64 0), i32 %38)
  %40 = load i32, i32* @n, align 4, !tbaa !5
  %41 = add nsw i32 %40, -1
  %42 = sext i32 %41 to i64
  %43 = icmp slt i64 %36, %42
  br i1 %43, label %44, label %48

44:                                               ; preds = %35
  %45 = load %struct._IO_FILE*, %struct._IO_FILE** @stdout, align 8, !tbaa !12
  %46 = tail call i32 @putc(i32 32, %struct._IO_FILE* %45) #2
  %47 = load i32, i32* @n, align 4, !tbaa !5
  br label %48

48:                                               ; preds = %35, %44
  %49 = phi i32 [ %40, %35 ], [ %47, %44 ]
  %50 = add nuw nsw i64 %36, 1
  %51 = sext i32 %49 to i64
  %52 = icmp slt i64 %50, %51
  br i1 %52, label %35, label %53, !llvm.loop !14

53:                                               ; preds = %48, %24
  %54 = load %struct._IO_FILE*, %struct._IO_FILE** @stdout, align 8, !tbaa !12
  %55 = tail call i32 @putc(i32 10, %struct._IO_FILE* %54) #2
  ret i32 0
}

; Function Attrs: nofree nounwind
declare noundef i32 @__isoc99_scanf(i8* nocapture noundef readonly, ...) local_unnamed_addr #1

; Function Attrs: nofree nounwind
declare noundef i32 @printf(i8* nocapture noundef readonly, ...) local_unnamed_addr #1

; Function Attrs: nofree nounwind
declare noundef i32 @putc(i32 noundef, %struct._IO_FILE* nocapture noundef) local_unnamed_addr #1


!llvm.module.flags = !{!0, !1, !2, !3}
!llvm.ident = !{!4}

!0 = !{i32 1, !"wchar_size", i32 4}
!1 = !{i32 7, !"PIC Level", i32 2}
!2 = !{i32 7, !"PIE Level", i32 2}
!3 = !{i32 7, !"uwtable", i32 1}
!4 = !{!"clang version 13.0.0"}
!5 = !{!6, !6, i64 0}
!6 = !{!"int", !7, i64 0}
!7 = !{!"omnipotent char", !8, i64 0}
!8 = !{!"Simple C/C++ TBAA"}
!9 = distinct !{!9, !10}
!10 = !{!"llvm.loop.mustprogress"}
!11 = distinct !{!11, !10}
!12 = !{!13, !13, i64 0}
!13 = !{!"any pointer", !7, i64 0}
!14 = distinct !{!14, !10}
